; Function Attrs: nounwind uwtable
define zeroext range(i8 0, 2) i8 @l_Array_anyMUnsafe_any___at___private_Lean_Elab_Notation_0__Lean_Elab_Command_antiquote___spec__2(ptr readnone captures(none) %0, ptr noundef %1, ptr noundef readonly captures(none) %2, i64 noundef %3, i64 noundef %4) local_unnamed_addr #0 {
  %.not39 = icmp eq i64 %3, %4
  br i1 %.not39, label %lean_dec.exit25._crit_edge, label %.lr.ph

.lr.ph:                                           ; preds = %5
  %6 = getelementptr inbounds nuw i8, ptr %2, i64 24
  br label %9

7:                                                ; preds = %lean_dec.exit25
  %8 = add i64 %.01940, 1
  %.not = icmp eq i64 %8, %4
  br i1 %.not, label %lean_dec.exit25._crit_edge, label %9

9:                                                ; preds = %.lr.ph, %7
  %.01940 = phi i64 [ %3, %.lr.ph ], [ %8, %7 ]
  %10 = getelementptr inbounds nuw [0 x ptr], ptr %6, i64 0, i64 %.01940
  %11 = load ptr, ptr %10, align 8, !tbaa !4
  %12 = ptrtoint ptr %11 to i64
  %13 = and i64 %12, 1
  %.not.i30 = icmp eq i64 %13, 0
  br i1 %.not.i30, label %14, label %lean_array_uget.exit

14:                                               ; preds = %9
  %.val.i.i = load i32, ptr %11, align 4, !tbaa !8
  %15 = icmp sgt i32 %.val.i.i, 0
  br i1 %15, label %16, label %18, !prof !11

16:                                               ; preds = %14
  %17 = add nuw i32 %.val.i.i, 1
  store i32 %17, ptr %11, align 4, !tbaa !8
  br label %21

18:                                               ; preds = %14
  %.not.i.i = icmp eq i32 %.val.i.i, 0
  br i1 %.not.i.i, label %21, label %19

19:                                               ; preds = %18
  tail call void @lean_inc_ref_cold(ptr noundef nonnull %11) #6
  br label %21

lean_array_uget.exit:                             ; preds = %9
  %20 = tail call ptr @l_Lean_Syntax_getId(ptr noundef %11) #6
  br label %lean_dec.exit

21:                                               ; preds = %16, %18, %19
  %22 = tail call ptr @l_Lean_Syntax_getId(ptr noundef nonnull %11) #6
  %23 = load i32, ptr %11, align 4, !tbaa !8
  %24 = icmp sgt i32 %23, 1
  br i1 %24, label %25, label %27, !prof !11

25:                                               ; preds = %21
  %26 = add nsw i32 %23, -1
  store i32 %26, ptr %11, align 4, !tbaa !8
  br label %lean_dec.exit

27:                                               ; preds = %21
  %.not.i28 = icmp eq i32 %23, 0
  br i1 %.not.i28, label %lean_dec.exit, label %28

28:                                               ; preds = %27
  tail call void @lean_dec_ref_cold(ptr noundef nonnull %11) #6
  br label %lean_dec.exit

lean_dec.exit:                                    ; preds = %28, %27, %25, %lean_array_uget.exit
  %29 = phi ptr [ %20, %lean_array_uget.exit ], [ %22, %25 ], [ %22, %27 ], [ %22, %28 ]
  %30 = tail call ptr @l_Lean_Syntax_getId(ptr noundef %1) #6
  %31 = tail call zeroext i8 @lean_name_eq(ptr noundef %29, ptr noundef %30) #6
  %32 = ptrtoint ptr %30 to i64
  %33 = and i64 %32, 1
  %.not37 = icmp eq i64 %33, 0
  br i1 %.not37, label %34, label %lean_dec.exit24

34:                                               ; preds = %lean_dec.exit
  %35 = load i32, ptr %30, align 4, !tbaa !8
  %36 = icmp sgt i32 %35, 1
  br i1 %36, label %37, label %39, !prof !11

37:                                               ; preds = %34
  %38 = add nsw i32 %35, -1
  store i32 %38, ptr %30, align 4, !tbaa !8
  br label %lean_dec.exit24

39:                                               ; preds = %34
  %.not.i26 = icmp eq i32 %35, 0
  br i1 %.not.i26, label %lean_dec.exit24, label %40

40:                                               ; preds = %39
  tail call void @lean_dec_ref_cold(ptr noundef nonnull %30) #6
  br label %lean_dec.exit24

lean_dec.exit24:                                  ; preds = %40, %39, %37, %lean_dec.exit
  %41 = ptrtoint ptr %29 to i64
  %42 = and i64 %41, 1
  %.not38 = icmp eq i64 %42, 0
  br i1 %.not38, label %43, label %lean_dec.exit25

43:                                               ; preds = %lean_dec.exit24
  %44 = load i32, ptr %29, align 4, !tbaa !8
  %45 = icmp sgt i32 %44, 1
  br i1 %45, label %46, label %48, !prof !11

46:                                               ; preds = %43
  %47 = add nsw i32 %44, -1
  store i32 %47, ptr %29, align 4, !tbaa !8
  br label %lean_dec.exit25

48:                                               ; preds = %43
  %.not.i = icmp eq i32 %44, 0
  br i1 %.not.i, label %lean_dec.exit25, label %49

49:                                               ; preds = %48
  tail call void @lean_dec_ref_cold(ptr noundef nonnull %29) #6
  br label %lean_dec.exit25

lean_dec.exit25:                                  ; preds = %49, %48, %46, %lean_dec.exit24
  %50 = icmp eq i8 %31, 0
  br i1 %50, label %7, label %lean_dec.exit25._crit_edge

lean_dec.exit25._crit_edge:                       ; preds = %7, %lean_dec.exit25, %5
  %.2.ph = phi i8 [ 0, %5 ], [ 1, %lean_dec.exit25 ], [ 0, %7 ]
  ret i8 %.2.ph
}